Certificate:
    Data:
        Version: 3 (0x2)
        Serial Number:
            02:96:aa:1e:03:80:26:80:cf:7b:c6:b3:70:8a:a7:1a
        Signature Algorithm: sha256WithRSAEncryption
        Issuer: CN=fsxn
        Validity
            Not Before: Aug 29 09:28:12 2023 GMT
            Not After : Dec  1 09:28:12 2025 GMT
        Subject: CN=client.fsxn
        Subject Public Key Info:
            Public Key Algorithm: rsaEncryption
                Public-Key: (2048 bit)
                Modulus:
                    00:b4:52:f6:8b:a0:e4:b6:2c:19:cb:b8:1a:13:bc:
                    07:6c:d8:37:50:b9:b4:17:4c:52:e6:e2:f4:26:95:
                    61:30:b1:0d:ab:d0:0a:d5:b1:fc:26:27:0a:22:22:
                    3b:42:a8:7d:62:d0:6f:34:31:91:9b:05:ea:28:8b:
                    93:0e:92:23:1d:d3:16:f9:e7:69:bd:5d:30:2f:1f:
                    56:b4:38:09:90:7c:d2:75:ab:f4:f8:51:9b:c8:05:
                    36:2f:8c:cf:56:b5:bf:ab:2b:92:07:34:e9:ce:4e:
                    6f:32:d3:b4:4c:e1:32:26:03:c3:3f:e4:99:39:80:
                    02:fe:53:de:3a:85:fe:ec:91:5c:09:0e:c4:b2:70:
                    95:82:cd:da:40:7f:dc:f4:11:77:29:ac:f3:bc:e2:
                    68:75:7b:f5:e4:39:bf:16:ee:f1:94:8b:9c:eb:73:
                    e9:5f:48:af:05:38:fd:65:bd:99:af:c1:f8:f8:e8:
                    92:61:99:c8:17:10:36:0b:ca:65:48:e8:17:eb:ca:
                    81:60:70:ba:4d:0e:a7:b9:f2:3c:d6:45:51:73:79:
                    20:6d:3f:5d:33:5e:8a:d0:df:c2:c4:22:b5:8c:2c:
                    b4:c6:b5:d4:90:66:fa:90:d1:57:b9:38:a7:aa:18:
                    6f:68:52:7b:ba:b6:52:c6:85:65:ed:5e:45:8a:e9:
                    8a:b5
                Exponent: 65537 (0x10001)
        X509v3 extensions:
            X509v3 Basic Constraints: 
                CA:FALSE
            X509v3 Subject Key Identifier: 
                51:BE:3D:9E:F7:02:4A:B2:68:59:A2:3A:5B:5C:9E:78:FE:AB:DF:7D
            X509v3 Authority Key Identifier: 
                keyid:01:29:CE:2F:A0:BA:64:45:A8:8F:01:0A:43:58:82:49:F5:3D:D6:7F
                DirName:/CN=fsxn
                serial:0A:9C:ED:82:C0:1C:0C:55:3C:93:EF:A1:FD:FD:B6:6D:65:8F:BD:47
            X509v3 Extended Key Usage: 
                TLS Web Client Authentication
            X509v3 Key Usage: 
                Digital Signature
    Signature Algorithm: sha256WithRSAEncryption
    Signature Value:
        03:ec:ba:5d:be:4a:10:c5:47:1f:22:db:95:81:aa:4f:de:ce:
        09:e4:09:f0:17:7c:bd:5d:e3:8d:de:30:22:4a:67:93:6b:69:
        88:e2:36:bf:4c:dc:71:5b:85:e4:4a:4e:d3:58:bf:87:77:23:
        5f:d3:5c:3b:c6:1a:2f:0c:58:8e:dc:b8:cc:ea:56:60:89:5b:
        6b:8c:a3:71:6c:eb:19:7a:50:5a:5e:3f:ec:ec:93:34:db:46:
        dc:b4:e5:35:df:16:b4:82:43:38:09:1c:15:51:12:cf:b7:cd:
        d9:bc:da:d8:6a:02:54:9d:62:f5:c4:a5:0f:08:17:74:f4:ec:
        5e:0d:54:ab:19:a2:d1:9e:bd:f5:6e:03:c5:3d:19:2c:b7:33:
        e9:7a:af:dd:5c:ab:c9:76:68:25:64:83:c1:94:d0:c3:b8:9c:
        4a:40:3a:3b:5c:58:bd:48:da:f0:8f:25:a3:a3:8b:2a:b0:23:
        f8:fd:80:aa:ae:d1:a4:61:f6:4d:d2:76:20:69:84:c9:cb:dc:
        50:89:fe:19:a8:1a:19:20:0e:ae:0a:41:6c:3e:74:9d:85:0f:
        fd:12:05:34:a1:75:3e:9c:16:c6:e0:a5:e2:ba:13:43:02:2a:
        86:f3:c3:a5:cd:cc:a7:cb:4b:01:8e:41:e6:d4:92:56:f9:c5:
        08:e9:8e:64
-----BEGIN CERTIFICATE-----
MIIDSzCCAjOgAwIBAgIQApaqHgOAJoDPe8azcIqnGjANBgkqhkiG9w0BAQsFADAP
MQ0wCwYDVQQDDARmc3huMB4XDTIzMDgyOTA5MjgxMloXDTI1MTIwMTA5MjgxMlow
FjEUMBIGA1UEAwwLY2xpZW50LmZzeG4wggEiMA0GCSqGSIb3DQEBAQUAA4IBDwAw
ggEKAoIBAQC0UvaLoOS2LBnLuBoTvAds2DdQubQXTFLm4vQmlWEwsQ2r0ArVsfwm
JwoiIjtCqH1i0G80MZGbBeooi5MOkiMd0xb552m9XTAvH1a0OAmQfNJ1q/T4UZvI
BTYvjM9Wtb+rK5IHNOnOTm8y07RM4TImA8M/5Jk5gAL+U946hf7skVwJDsSycJWC
zdpAf9z0EXcprPO84mh1e/XkOb8W7vGUi5zrc+lfSK8FOP1lvZmvwfj46JJhmcgX
EDYLymVI6BfryoFgcLpNDqe58jzWRVFzeSBtP10zXorQ38LEIrWMLLTGtdSQZvqQ
0Ve5OKeqGG9oUnu6tlLGhWXtXkWK6Yq1AgMBAAGjgZswgZgwCQYDVR0TBAIwADAd
BgNVHQ4EFgQUUb49nvcCSrJoWaI6W1yeeP6r330wSgYDVR0jBEMwQYAUASnOL6C6
ZEWojwEKQ1iCSfU91n+hE6QRMA8xDTALBgNVBAMMBGZzeG6CFAqc7YLAHAxVPJPv
of39tm1lj71HMBMGA1UdJQQMMAoGCCsGAQUFBwMCMAsGA1UdDwQEAwIHgDANBgkq
hkiG9w0BAQsFAAOCAQEAA+y6Xb5KEMVHHyLblYGqT97OCeQJ8Bd8vV3jjd4wIkpn
k2tpiOI2v0zccVuF5EpO01i/h3cjX9NcO8YaLwxYjty4zOpWYIlba4yjcWzrGXpQ
Wl4/7OyTNNtG3LTlNd8WtIJDOAkcFVESz7fN2bza2GoCVJ1i9cSlDwgXdPTsXg1U
qxmi0Z699W4DxT0ZLLcz6Xqv3VyryXZoJWSDwZTQw7icSkA6O1xYvUja8I8lo6OL
KrAj+P2Aqq7RpGH2TdJ2IGmEycvcUIn+GagaGSAOrgpBbD50nYUP/RIFNKF1PpwW
xuCl4roTQwIqhvPDpc3Mp8tLAY5B5tSSVvnFCOmOZA==
-----END CERTIFICATE-----
