Certificate:
    Data:
        Version: 3 (0x2)
        Serial Number:
            c7:dc:7d:99:71:14:6a:08:f6:93:61:ad:45:69:b1:1e
        Signature Algorithm: sha256WithRSAEncryption
        Issuer: CN=fsxn
        Validity
            Not Before: Aug 29 09:27:41 2023 GMT
            Not After : Dec  1 09:27:41 2025 GMT
        Subject: CN=server.fsxn
        Subject Public Key Info:
            Public Key Algorithm: rsaEncryption
                Public-Key: (2048 bit)
                Modulus:
                    00:af:12:74:7f:f1:26:6a:8a:58:9d:6e:4b:0f:77:
                    05:b9:a6:3e:ef:c4:f4:15:f6:16:e9:8b:d3:37:b5:
                    67:10:63:00:a2:76:26:7e:84:19:3f:a5:12:22:aa:
                    96:f3:4b:67:0d:2e:3e:ba:26:18:41:05:2f:c0:33:
                    b8:28:cc:9f:8b:d3:48:74:43:83:a7:04:37:9c:ef:
                    33:fa:23:c0:c1:08:76:2a:7e:9a:c6:eb:6e:9d:55:
                    2c:89:0d:9d:32:60:2e:b8:a5:0c:d5:50:05:cc:a1:
                    33:d3:54:9d:71:f9:11:0d:68:a0:c2:d4:d4:ca:5d:
                    07:28:dd:03:19:d4:10:ae:65:7c:cf:30:76:77:5c:
                    55:f8:78:62:ed:9e:e2:a0:fb:1a:b5:5f:2a:b8:a3:
                    c5:a7:c8:eb:1f:61:55:a8:84:e2:12:5b:e9:10:e3:
                    90:80:d7:8b:07:97:e0:91:04:e1:f2:d0:1b:fc:01:
                    3e:86:3f:02:d8:6b:49:25:0f:d3:e9:18:b1:1f:f3:
                    64:95:7c:27:67:53:24:b6:43:06:3c:18:0e:2b:07:
                    e4:35:05:36:1c:9a:c4:95:0f:7a:f8:b5:35:83:b2:
                    35:54:3c:70:1f:6c:db:8d:20:38:15:3f:f3:6d:31:
                    73:ac:6c:85:9b:55:64:31:fd:fd:86:5f:c0:b2:37:
                    f7:67
                Exponent: 65537 (0x10001)
        X509v3 extensions:
            X509v3 Basic Constraints: 
                CA:FALSE
            X509v3 Subject Key Identifier: 
                46:05:97:FE:5F:3C:79:47:D8:BA:E3:CE:24:F5:6C:64:41:8F:CA:D5
            X509v3 Authority Key Identifier: 
                keyid:01:29:CE:2F:A0:BA:64:45:A8:8F:01:0A:43:58:82:49:F5:3D:D6:7F
                DirName:/CN=fsxn
                serial:0A:9C:ED:82:C0:1C:0C:55:3C:93:EF:A1:FD:FD:B6:6D:65:8F:BD:47
            X509v3 Extended Key Usage: 
                TLS Web Server Authentication
            X509v3 Key Usage: 
                Digital Signature, Key Encipherment
            X509v3 Subject Alternative Name: 
                DNS:server.fsxn
    Signature Algorithm: sha256WithRSAEncryption
    Signature Value:
        b1:44:ef:95:dc:4f:0e:6e:e9:59:37:7a:8f:ea:23:76:62:69:
        f3:f7:69:45:7d:a7:3a:76:2f:88:2d:6d:d5:78:f0:b5:01:85:
        fa:16:70:6d:5e:bc:ac:28:d8:ad:1d:89:26:41:66:45:43:d7:
        58:fa:f6:c9:64:95:e4:84:2e:44:fc:c0:c9:64:58:26:4e:6f:
        87:58:a6:2a:82:e9:49:24:0e:cb:79:06:4a:82:c2:aa:13:48:
        76:8f:16:54:91:63:1c:31:b1:b1:9e:8d:f5:c8:f6:9b:3e:c6:
        13:96:b7:1d:c6:82:eb:b9:3b:69:2e:f8:c7:42:29:54:15:89:
        60:55:0a:d1:23:ae:35:db:b0:6e:e0:ac:a6:f7:1d:05:69:c4:
        2e:f5:c4:13:26:ac:25:67:d0:ba:fd:08:d4:52:dd:ae:14:9c:
        99:4b:33:f9:29:34:62:31:0f:99:87:28:aa:e9:4b:2a:1c:06:
        3d:8f:a8:50:b6:7d:aa:9f:b2:43:37:45:48:72:98:24:62:f6:
        47:03:fe:f7:93:ee:56:1c:42:eb:da:71:a3:b3:90:f8:e4:4f:
        3a:ec:f8:b2:59:da:86:2d:71:bc:72:26:55:44:71:51:f0:32:
        3f:b5:19:93:17:6a:3f:48:93:0d:bf:3a:4b:b0:22:35:de:8b:
        0f:16:13:bc
-----BEGIN CERTIFICATE-----
MIIDZDCCAkygAwIBAgIRAMfcfZlxFGoI9pNhrUVpsR4wDQYJKoZIhvcNAQELBQAw
DzENMAsGA1UEAwwEZnN4bjAeFw0yMzA4MjkwOTI3NDFaFw0yNTEyMDEwOTI3NDFa
MBYxFDASBgNVBAMMC3NlcnZlci5mc3huMIIBIjANBgkqhkiG9w0BAQEFAAOCAQ8A
MIIBCgKCAQEArxJ0f/EmaopYnW5LD3cFuaY+78T0FfYW6YvTN7VnEGMAonYmfoQZ
P6USIqqW80tnDS4+uiYYQQUvwDO4KMyfi9NIdEODpwQ3nO8z+iPAwQh2Kn6axutu
nVUsiQ2dMmAuuKUM1VAFzKEz01SdcfkRDWigwtTUyl0HKN0DGdQQrmV8zzB2d1xV
+Hhi7Z7ioPsatV8quKPFp8jrH2FVqITiElvpEOOQgNeLB5fgkQTh8tAb/AE+hj8C
2GtJJQ/T6RixH/NklXwnZ1MktkMGPBgOKwfkNQU2HJrElQ96+LU1g7I1VDxwH2zb
jSA4FT/zbTFzrGyFm1VkMf39hl/Asjf3ZwIDAQABo4GzMIGwMAkGA1UdEwQCMAAw
HQYDVR0OBBYEFEYFl/5fPHlH2LrjziT1bGRBj8rVMEoGA1UdIwRDMEGAFAEpzi+g
umRFqI8BCkNYgkn1PdZ/oROkETAPMQ0wCwYDVQQDDARmc3hughQKnO2CwBwMVTyT
76H9/bZtZY+9RzATBgNVHSUEDDAKBggrBgEFBQcDATALBgNVHQ8EBAMCBaAwFgYD
VR0RBA8wDYILc2VydmVyLmZzeG4wDQYJKoZIhvcNAQELBQADggEBALFE75XcTw5u
6Vk3eo/qI3ZiafP3aUV9pzp2L4gtbdV48LUBhfoWcG1evKwo2K0diSZBZkVD11j6
9slkleSELkT8wMlkWCZOb4dYpiqC6UkkDst5BkqCwqoTSHaPFlSRYxwxsbGejfXI
9ps+xhOWtx3Gguu5O2ku+MdCKVQViWBVCtEjrjXbsG7grKb3HQVpxC71xBMmrCVn
0Lr9CNRS3a4UnJlLM/kpNGIxD5mHKKrpSyocBj2PqFC2faqfskM3RUhymCRi9kcD
/veT7lYcQuvacaOzkPjkTzrs+LJZ2oYtcbxyJlVEcVHwMj+1GZMXaj9Ikw2/Okuw
IjXeiw8WE7w=
-----END CERTIFICATE-----
