Certificate:
    Data:
        Version: 3 (0x2)
        Serial Number:
            29:52:8b:db:9d:ff:bc:af:42:7d:f4:43:81:95:d2:0f
        Signature Algorithm: sha256WithRSAEncryption
        Issuer: CN=fsxn
        Validity
            Not Before: Aug 25 11:28:44 2023 GMT
            Not After : Nov 27 11:28:44 2025 GMT
        Subject: CN=server
        Subject Public Key Info:
            Public Key Algorithm: rsaEncryption
                Public-Key: (2048 bit)
                Modulus:
                    00:a1:38:3b:c3:86:58:56:49:58:dc:a9:c9:06:cc:
                    00:cd:4b:79:59:24:84:91:46:e8:59:71:61:3c:e8:
                    db:f4:ea:12:ab:85:c9:f6:a1:55:25:5b:6c:08:5c:
                    c6:b4:f0:8b:36:d3:07:2e:13:c6:92:2c:39:ed:34:
                    8b:03:83:50:1f:b3:db:a9:95:ff:70:23:96:1c:ca:
                    15:52:15:be:90:a7:be:3b:90:fd:69:c2:b6:d5:5b:
                    9b:b7:c1:cb:22:c2:c7:a4:e5:15:0c:0a:70:f0:3c:
                    91:95:69:80:a1:38:4a:f3:42:ae:1a:71:b8:53:a9:
                    2d:b3:ff:2b:af:2c:dc:82:51:86:c1:af:41:26:95:
                    5d:99:51:5a:01:b9:54:69:bf:14:3b:f1:fb:0f:7b:
                    45:2f:d9:97:fd:1c:c5:3d:35:7a:51:4f:1c:86:21:
                    24:26:a5:3a:ab:0e:bc:31:8e:77:2f:73:02:7c:6f:
                    c8:0c:ca:c7:8b:77:9b:76:61:88:e8:5b:fe:65:ad:
                    03:8b:51:b0:98:5b:b1:56:f8:e8:3e:e6:4d:e8:b7:
                    69:0d:96:0a:b2:a4:4b:7e:13:ca:75:3c:ab:54:cd:
                    33:39:12:34:f9:f9:9e:69:10:ba:a3:c0:ca:a1:2b:
                    38:7e:ec:ae:38:48:33:28:2f:cc:19:79:48:3c:5b:
                    8d:57
                Exponent: 65537 (0x10001)
        X509v3 extensions:
            X509v3 Basic Constraints: 
                CA:FALSE
            X509v3 Subject Key Identifier: 
                3F:6B:89:4B:9F:78:A5:AA:6D:F5:65:BD:D5:07:B4:DE:60:05:D2:E5
            X509v3 Authority Key Identifier: 
                keyid:01:29:CE:2F:A0:BA:64:45:A8:8F:01:0A:43:58:82:49:F5:3D:D6:7F
                DirName:/CN=fsxn
                serial:0A:9C:ED:82:C0:1C:0C:55:3C:93:EF:A1:FD:FD:B6:6D:65:8F:BD:47
            X509v3 Extended Key Usage: 
                TLS Web Server Authentication
            X509v3 Key Usage: 
                Digital Signature, Key Encipherment
            X509v3 Subject Alternative Name: 
                DNS:server
    Signature Algorithm: sha256WithRSAEncryption
    Signature Value:
        4e:fe:93:d1:6a:92:0b:37:69:f4:12:32:b2:3b:76:4b:eb:f8:
        c9:21:be:ae:24:6d:eb:39:9f:fb:5b:01:7a:6f:ae:9e:25:9f:
        58:62:9b:05:ab:94:58:38:6e:7a:08:9f:29:0f:96:8e:90:64:
        d9:73:d1:7e:6f:f3:01:8f:30:40:68:3c:d4:7c:ef:0a:4f:a3:
        2b:95:6c:2a:0b:0b:6f:bf:d6:73:ba:7d:7e:25:72:67:ae:90:
        e7:16:3a:0a:7a:f9:96:d9:49:1b:21:9b:1d:7a:d0:d7:cd:79:
        4d:d6:09:60:e8:f6:b2:c2:0a:b8:b2:c6:39:a9:c8:e1:1f:36:
        40:36:ab:2b:2a:75:ca:db:13:79:18:f3:65:27:fc:59:8c:86:
        30:b3:34:ec:3e:36:f6:2a:f9:24:e3:32:c2:d4:8a:76:c8:6b:
        18:b6:13:61:78:dc:26:61:6e:69:b8:3a:bd:f0:95:e9:ac:44:
        8d:d5:f6:16:a5:b8:12:f1:9d:60:74:c5:1d:2e:fd:40:6b:2b:
        59:ff:82:fb:a2:86:2f:61:ea:48:0f:a7:39:7c:d3:10:ee:56:
        4f:92:51:2b:fa:e0:ed:65:24:ce:d7:c4:24:7e:8f:5f:c6:eb:
        08:b5:f0:2e:6a:7d:c0:e6:64:73:b9:82:af:b5:2e:97:8c:1d:
        c1:14:68:fb
-----BEGIN CERTIFICATE-----
MIIDWTCCAkGgAwIBAgIQKVKL253/vK9CffRDgZXSDzANBgkqhkiG9w0BAQsFADAP
MQ0wCwYDVQQDDARmc3huMB4XDTIzMDgyNTExMjg0NFoXDTI1MTEyNzExMjg0NFow
ETEPMA0GA1UEAwwGc2VydmVyMIIBIjANBgkqhkiG9w0BAQEFAAOCAQ8AMIIBCgKC
AQEAoTg7w4ZYVklY3KnJBswAzUt5WSSEkUboWXFhPOjb9OoSq4XJ9qFVJVtsCFzG
tPCLNtMHLhPGkiw57TSLA4NQH7PbqZX/cCOWHMoVUhW+kKe+O5D9acK21Vubt8HL
IsLHpOUVDApw8DyRlWmAoThK80KuGnG4U6kts/8rryzcglGGwa9BJpVdmVFaAblU
ab8UO/H7D3tFL9mX/RzFPTV6UU8chiEkJqU6qw68MY53L3MCfG/IDMrHi3ebdmGI
6Fv+Za0Di1GwmFuxVvjoPuZN6LdpDZYKsqRLfhPKdTyrVM0zORI0+fmeaRC6o8DK
oSs4fuyuOEgzKC/MGXlIPFuNVwIDAQABo4GuMIGrMAkGA1UdEwQCMAAwHQYDVR0O
BBYEFD9riUufeKWqbfVlvdUHtN5gBdLlMEoGA1UdIwRDMEGAFAEpzi+gumRFqI8B
CkNYgkn1PdZ/oROkETAPMQ0wCwYDVQQDDARmc3hughQKnO2CwBwMVTyT76H9/bZt
ZY+9RzATBgNVHSUEDDAKBggrBgEFBQcDATALBgNVHQ8EBAMCBaAwEQYDVR0RBAow
CIIGc2VydmVyMA0GCSqGSIb3DQEBCwUAA4IBAQBO/pPRapILN2n0EjKyO3ZL6/jJ
Ib6uJG3rOZ/7WwF6b66eJZ9YYpsFq5RYOG56CJ8pD5aOkGTZc9F+b/MBjzBAaDzU
fO8KT6MrlWwqCwtvv9Zzun1+JXJnrpDnFjoKevmW2UkbIZsdetDXzXlN1glg6Pay
wgq4ssY5qcjhHzZANqsrKnXK2xN5GPNlJ/xZjIYwszTsPjb2Kvkk4zLC1Ip2yGsY
thNheNwmYW5puDq98JXprESN1fYWpbgS8Z1gdMUdLv1AaytZ/4L7ooYvYepID6c5
fNMQ7lZPklEr+uDtZSTO18Qkfo9fxusItfAuan3A5mRzuYKvtS6XjB3BFGj7
-----END CERTIFICATE-----
